; Function Attrs: mustprogress uwtable
define void @_ZN8QuantLib16SabrSmileSectionC2ERKNS_4DateEdRKSt6vectorIdSaIdEES3_RKNS_10DayCounterEdNS_14VolatilityTypeE(ptr noundef nonnull align 8 dereferenceable(120) %this, ptr noundef %vtt, ptr noundef nonnull align 8 dereferenceable(8) %d, double noundef %forward, ptr nocapture noundef nonnull readonly align 8 dereferenceable(24) %sabrParams, ptr noundef nonnull align 8 dereferenceable(8) %referenceDate, ptr nocapture noundef nonnull readonly align 8 dereferenceable(16) %dc, double noundef %shift, i32 noundef %volatilityType) unnamed_addr #6 align 2 personality ptr @__gxx_personality_v0 {
entry:
  %agg.tmp = alloca %"class.QuantLib::DayCounter", align 8
  %0 = load ptr, ptr %dc, align 8, !tbaa !55
  store ptr %0, ptr %agg.tmp, align 8, !tbaa !55
  %pn.i.i = getelementptr inbounds nuw i8, ptr %agg.tmp, i64 8
  %pn3.i.i = getelementptr inbounds nuw i8, ptr %dc, i64 8
  %1 = load ptr, ptr %pn3.i.i, align 8, !tbaa !37
  store ptr %1, ptr %pn.i.i, align 8, !tbaa !37
  %cmp.not.i.i.i = icmp eq ptr %1, null
  br i1 %cmp.not.i.i.i, label %_ZN8QuantLib10DayCounterC2ERKS0_.exit, label %if.then.i.i.i

if.then.i.i.i:                                    ; preds = %entry
  %use_count_.i.i.i.i = getelementptr inbounds nuw i8, ptr %1, i64 8
  %2 = atomicrmw add ptr %use_count_.i.i.i.i, i32 1 monotonic, align 4
  br label %_ZN8QuantLib10DayCounterC2ERKS0_.exit

_ZN8QuantLib10DayCounterC2ERKS0_.exit:            ; preds = %entry, %if.then.i.i.i
  %3 = getelementptr inbounds i8, ptr %vtt, i64 8
  invoke void @_ZN8QuantLib12SmileSectionC2ERKNS_4DateENS_10DayCounterES3_NS_14VolatilityTypeEd(ptr noundef nonnull align 8 dereferenceable(72) %this, ptr noundef nonnull %3, ptr noundef nonnull align 8 dereferenceable(8) %d, ptr noundef nonnull %agg.tmp, ptr noundef nonnull align 8 dereferenceable(8) %referenceDate, i32 noundef %volatilityType, double noundef %shift)
          to label %invoke.cont unwind label %lpad

invoke.cont:                                      ; preds = %_ZN8QuantLib10DayCounterC2ERKS0_.exit
  %4 = load ptr, ptr %pn.i.i, align 8, !tbaa !37
  %cmp.not.i.i.i4 = icmp eq ptr %4, null
  br i1 %cmp.not.i.i.i4, label %_ZN8QuantLib10DayCounterD2Ev.exit, label %if.then.i.i.i5

if.then.i.i.i5:                                   ; preds = %invoke.cont
  %use_count_.i.i.i.i6 = getelementptr inbounds nuw i8, ptr %4, i64 8
  %5 = atomicrmw sub ptr %use_count_.i.i.i.i6, i32 1 acq_rel, align 4
  %cmp.i.i.i.i = icmp eq i32 %5, 1
  br i1 %cmp.i.i.i.i, label %if.then.i.i.i.i, label %_ZN8QuantLib10DayCounterD2Ev.exit

if.then.i.i.i.i:                                  ; preds = %if.then.i.i.i5
  %vtable.i.i.i.i = load ptr, ptr %4, align 8, !tbaa !35
  %vfn.i.i.i.i = getelementptr inbounds i8, ptr %vtable.i.i.i.i, i64 16
  %6 = load ptr, ptr %vfn.i.i.i.i, align 8
  invoke void %6(ptr noundef nonnull align 8 dereferenceable(16) %4)
          to label %.noexc.i.i.i unwind label %terminate.lpad.i.i.i

.noexc.i.i.i:                                     ; preds = %if.then.i.i.i.i
  %weak_count_.i.i.i.i.i = getelementptr inbounds nuw i8, ptr %4, i64 12
  %7 = atomicrmw sub ptr %weak_count_.i.i.i.i.i, i32 1 acq_rel, align 4
  %cmp.i.i.i.i.i = icmp eq i32 %7, 1
  br i1 %cmp.i.i.i.i.i, label %if.then.i.i.i.i.i, label %_ZN8QuantLib10DayCounterD2Ev.exit

if.then.i.i.i.i.i:                                ; preds = %.noexc.i.i.i
  %vtable.i.i.i.i.i = load ptr, ptr %4, align 8, !tbaa !35
  %vfn.i.i.i.i.i = getelementptr inbounds i8, ptr %vtable.i.i.i.i.i, i64 24
  %8 = load ptr, ptr %vfn.i.i.i.i.i, align 8
  invoke void %8(ptr noundef nonnull align 8 dereferenceable(16) %4)
          to label %_ZN8QuantLib10DayCounterD2Ev.exit unwind label %terminate.lpad.i.i.i

terminate.lpad.i.i.i:                             ; preds = %if.then.i.i.i.i.i, %if.then.i.i.i.i
  %9 = landingpad { ptr, i32 }
          catch ptr null
  %10 = extractvalue { ptr, i32 } %9, 0
  call void @__clang_call_terminate(ptr %10) #23
  unreachable

_ZN8QuantLib10DayCounterD2Ev.exit:                ; preds = %invoke.cont, %if.then.i.i.i5, %.noexc.i.i.i, %if.then.i.i.i.i.i
  %11 = load ptr, ptr %vtt, align 8
  store ptr %11, ptr %this, align 8, !tbaa !35
  %12 = getelementptr inbounds i8, ptr %vtt, i64 32
  %13 = load ptr, ptr %12, align 8
  %vbase.offset.ptr = getelementptr i8, ptr %11, i64 -24
  %vbase.offset = load i64, ptr %vbase.offset.ptr, align 8
  %add.ptr = getelementptr inbounds i8, ptr %this, i64 %vbase.offset
  store ptr %13, ptr %add.ptr, align 8, !tbaa !35
  %14 = getelementptr inbounds i8, ptr %vtt, i64 40
  %15 = load ptr, ptr %14, align 8
  %vtable3 = load ptr, ptr %this, align 8, !tbaa !35
  %vbase.offset.ptr4 = getelementptr i8, ptr %vtable3, i64 -32
  %vbase.offset5 = load i64, ptr %vbase.offset.ptr4, align 8
  %add.ptr6 = getelementptr inbounds i8, ptr %this, i64 %vbase.offset5
  store ptr %15, ptr %add.ptr6, align 8, !tbaa !35
  %forward_ = getelementptr inbounds nuw i8, ptr %this, i64 104
  store double %forward, ptr %forward_, align 8, !tbaa !39
  %shift_ = getelementptr inbounds nuw i8, ptr %this, i64 112
  store double %shift, ptr %shift_, align 8, !tbaa !47
  invoke void @_ZN8QuantLib16SabrSmileSection10initialiseERKSt6vectorIdSaIdEE(ptr noundef nonnull align 8 dereferenceable(120) %this, ptr noundef nonnull align 8 dereferenceable(24) %sabrParams)
          to label %invoke.cont8 unwind label %lpad7

invoke.cont8:                                     ; preds = %_ZN8QuantLib10DayCounterD2Ev.exit
  ret void

lpad:                                             ; preds = %_ZN8QuantLib10DayCounterC2ERKS0_.exit
  %16 = landingpad { ptr, i32 }
          cleanup
  call void @_ZN8QuantLib10DayCounterD2Ev(ptr noundef nonnull align 8 dereferenceable(16) %agg.tmp) #22
  br label %eh.resume

lpad7:                                            ; preds = %_ZN8QuantLib10DayCounterD2Ev.exit
  %17 = landingpad { ptr, i32 }
          cleanup
  call void @_ZN8QuantLib12SmileSectionD2Ev(ptr noundef nonnull align 8 dereferenceable(72) %this, ptr noundef nonnull %3) #22
  br label %eh.resume

eh.resume:                                        ; preds = %lpad7, %lpad
  %.pn = phi { ptr, i32 } [ %17, %lpad7 ], [ %16, %lpad ]
  resume { ptr, i32 } %.pn
}